target datalayout = "e-m:e-p270:32:32-p271:32:32-p272:64:64-i64:64-i128:128-f80:128-n8:16:32:64-S128"
target triple = "x86_64-pc-linux-gnu"

%"class.std::__shared_count" = type { ptr }
%"class.cv::utils::trace::details::Region" = type <{ ptr, i32, [4 x i8] }>
%"struct.cv::Ptr.92" = type { %"class.std::shared_ptr.93" }
%"class.std::shared_ptr.93" = type { %"class.std::__shared_ptr.94" }
%"class.std::__shared_ptr.94" = type { ptr, %"class.std::__shared_count" }
%"class.cv::Size_" = type { i32, i32 }
%"class.cv::Point_" = type { i32, i32 }

; Function Attrs: mustprogress uwtable
define hidden void @_ZN2cv15createBoxFilterEiiNS_5Size_IiEENS_6Point_IiEEbi(ptr dead_on_unwind noalias writable sret(%"struct.cv::Ptr.92") align 8 %0, i32 noundef %1, i32 noundef %2, i64 %3, i64 %4, i1 noundef zeroext %5, i32 noundef %6) #0 personality ptr @__gxx_personality_v0 {
  %8 = alloca ptr, align 8
  %9 = alloca %"class.cv::Size_", align 4
  %10 = alloca %"class.cv::Point_", align 4
  %11 = alloca i32, align 4
  %12 = alloca i32, align 4
  %13 = alloca i8, align 1
  %14 = alloca i32, align 4
  %15 = alloca %"class.cv::utils::trace::details::Region", align 8
  %16 = alloca %"class.cv::Size_", align 4
  %17 = alloca %"class.cv::Point_", align 4
  %18 = alloca ptr, align 8
  %19 = alloca i32, align 4
  store ptr %0, ptr %8, align 8
  store i64 %3, ptr %9, align 4
  store i64 %4, ptr %10, align 4
  store i32 %1, ptr %11, align 4, !tbaa !3
  store i32 %2, ptr %12, align 4, !tbaa !3
  %20 = zext i1 %5 to i8
  store i8 %20, ptr %13, align 1, !tbaa !73
  store i32 %6, ptr %14, align 4, !tbaa !3
  call void @llvm.lifetime.start.p0(i64 16, ptr %15) #21
  call void @_ZN2cv5utils5trace7details6RegionC1ERKNS3_21LocationStaticStorageE(ptr noundef nonnull align 8 dereferenceable(12) %15, ptr noundef nonnull align 8 dereferenceable(32) @_ZZN2cv15createBoxFilterEiiNS_5Size_IiEENS_6Point_IiEEbiE25__cv_trace_location_fn310)
  %21 = load i32, ptr %11, align 4, !tbaa !3
  %22 = load i32, ptr %12, align 4, !tbaa !3
  call void @llvm.memcpy.p0.p0.i64(ptr align 4 %16, ptr align 4 %9, i64 8, i1 false), !tbaa.struct !103
  call void @llvm.memcpy.p0.p0.i64(ptr align 4 %17, ptr align 4 %10, i64 8, i1 false), !tbaa.struct !103
  %23 = load i8, ptr %13, align 1, !tbaa !73, !range !78, !noundef !79
  %24 = trunc i8 %23 to i1
  %25 = load i32, ptr %14, align 4, !tbaa !3
  %26 = load i64, ptr %16, align 4
  %27 = load i64, ptr %17, align 4
  invoke void @_ZN2cv12cpu_baseline15createBoxFilterEiiNS_5Size_IiEENS_6Point_IiEEbi(ptr dead_on_unwind writable sret(%"struct.cv::Ptr.92") align 8 %0, i32 noundef %21, i32 noundef %22, i64 %26, i64 %27, i1 noundef zeroext %24, i32 noundef %25)
          to label %28 unwind label %29

28:                                               ; preds = %7
  call void @_ZN2cv5utils5trace7details6RegionD2Ev(ptr noundef nonnull align 8 dereferenceable(12) %15) #21
  call void @llvm.lifetime.end.p0(i64 16, ptr %15) #21
  ret void

29:                                               ; preds = %7
  %30 = landingpad { ptr, i32 }
          cleanup
  %31 = extractvalue { ptr, i32 } %30, 0
  store ptr %31, ptr %18, align 8
  %32 = extractvalue { ptr, i32 } %30, 1
  store i32 %32, ptr %19, align 4
  call void @_ZN2cv5utils5trace7details6RegionD2Ev(ptr noundef nonnull align 8 dereferenceable(12) %15) #21
  call void @llvm.lifetime.end.p0(i64 16, ptr %15) #21
  br label %33

33:                                               ; preds = %29
  %34 = load ptr, ptr %18, align 8
  %35 = load i32, ptr %19, align 4
  %36 = insertvalue { ptr, i32 } poison, ptr %34, 0
  %37 = insertvalue { ptr, i32 } %36, i32 %35, 1
  resume { ptr, i32 } %37
}