; Function Attrs: mustprogress uwtable
define hidden void @_ZN2cv15createBoxFilterEiiNS_5Size_IiEENS_6Point_IiEEbi(ptr dead_on_unwind noalias writable writeonly sret(%"struct.cv::Ptr.92") align 8 captures(none) %0, i32 noundef %1, i32 noundef %2, i64 %3, i64 %4, i1 noundef zeroext %5, i32 noundef %6) local_unnamed_addr #0 personality ptr @__gxx_personality_v0 {
  %8 = alloca %"class.cv::utils::trace::details::Region", align 8
  call void @llvm.lifetime.start.p0(i64 16, ptr nonnull %8) #24
  call void @_ZN2cv5utils5trace7details6RegionC1ERKNS3_21LocationStaticStorageE(ptr noundef nonnull align 8 dereferenceable(12) %8, ptr noundef nonnull align 8 dereferenceable(32) @_ZZN2cv15createBoxFilterEiiNS_5Size_IiEENS_6Point_IiEEbiE25__cv_trace_location_fn310)
  invoke void @_ZN2cv12cpu_baseline15createBoxFilterEiiNS_5Size_IiEENS_6Point_IiEEbi(ptr dead_on_unwind writable sret(%"struct.cv::Ptr.92") align 8 %0, i32 noundef %1, i32 noundef %2, i64 %3, i64 %4, i1 noundef zeroext %5, i32 noundef %6)
          to label %9 unwind label %16

9:                                                ; preds = %7
  %10 = getelementptr inbounds nuw i8, ptr %8, i64 8
  %11 = load i32, ptr %10, align 8, !tbaa !67
  %.not.i = icmp eq i32 %11, 0
  br i1 %.not.i, label %_ZN2cv5utils5trace7details6RegionD2Ev.exit, label %12

12:                                               ; preds = %9
  invoke void @_ZN2cv5utils5trace7details6Region7destroyEv(ptr noundef nonnull align 8 dereferenceable(12) %8)
          to label %_ZN2cv5utils5trace7details6RegionD2Ev.exit unwind label %13

13:                                               ; preds = %12
  %14 = landingpad { ptr, i32 }
          catch ptr null
  %15 = extractvalue { ptr, i32 } %14, 0
  call void @__clang_call_terminate(ptr %15) #28
  unreachable

_ZN2cv5utils5trace7details6RegionD2Ev.exit:       ; preds = %9, %12
  call void @llvm.lifetime.end.p0(i64 16, ptr nonnull %8) #24
  ret void

16:                                               ; preds = %7
  %17 = landingpad { ptr, i32 }
          cleanup
  call void @_ZN2cv5utils5trace7details6RegionD2Ev(ptr noundef nonnull align 8 dereferenceable(12) %8) #24
  call void @llvm.lifetime.end.p0(i64 16, ptr nonnull %8) #24
  resume { ptr, i32 } %17
}